target datalayout = "e-m:e-p270:32:32-p271:32:32-p272:64:64-i64:64-i128:128-f80:128-n8:16:32:64-S128"
target triple = "x86_64-pc-linux-gnu"

%struct._psqlSettings = type { ptr, i32, ptr, i8, ptr, ptr, %struct.printQueryOpt, ptr, ptr, ptr, i8, i8, i32, i32, ptr, ptr, i8, [4 x ptr], i8, i32, ptr, i8, i32, ptr, ptr, i64, i64, i8, ptr, ptr, ptr, i8, i8, i8, i8, i8, i8, i8, i32, i32, i32, i32, i32, i32, i32, i32, ptr, ptr, ptr, i32, i8, i32 }
%struct.printQueryOpt = type { %struct.printTableOpt, ptr, ptr, ptr, i8, ptr, i32 }
%struct.printTableOpt = type { i32, i16, i32, i32, i16, i16, i32, i8, i8, i8, i8, i64, ptr, %struct.separator, %struct.separator, [2 x i8], i8, ptr, i32, i32, i32, i32, i32, i32 }
%struct.separator = type { ptr, i8 }

@pset = external global %struct._psqlSettings, align 8
@stdin = external global ptr, align 8
@.str.17 = private unnamed_addr constant [2 x i8] c"-\00", align 1
@.str.18 = private unnamed_addr constant [2 x i8] c"r\00", align 1
@.str.19 = private unnamed_addr constant [7 x i8] c"%s: %m\00", align 1
@.str.20 = private unnamed_addr constant [8 x i8] c"<stdin>\00", align 1

; Function Attrs: nounwind uwtable
define dso_local i32 @process_file(ptr noundef %0, i1 noundef zeroext %1) #0 {
  %3 = alloca i32, align 4
  %4 = alloca ptr, align 8
  %5 = alloca i8, align 1
  %6 = alloca ptr, align 8
  %7 = alloca i32, align 4
  %8 = alloca ptr, align 8
  %9 = alloca [1024 x i8], align 16
  %10 = alloca i32, align 4
  store ptr %0, ptr %4, align 8
  %11 = zext i1 %1 to i8
  store i8 %11, ptr %5, align 1
  call void @llvm.lifetime.start.p0(i64 8, ptr %6) #10
  call void @llvm.lifetime.start.p0(i64 4, ptr %7) #10
  call void @llvm.lifetime.start.p0(i64 8, ptr %8) #10
  call void @llvm.lifetime.start.p0(i64 1024, ptr %9) #10
  %12 = load ptr, ptr %4, align 8
  %13 = icmp ne ptr %12, null
  br i1 %13, label %16, label %14

14:                                               ; preds = %2
  %15 = load ptr, ptr @stdin, align 8
  store ptr %15, ptr %6, align 8
  store ptr null, ptr %4, align 8
  br label %59

16:                                               ; preds = %2
  %17 = load ptr, ptr %4, align 8
  %18 = call i32 @strcmp(ptr noundef %17, ptr noundef @.str.17) #11
  %19 = icmp ne i32 %18, 0
  br i1 %19, label %20, label %56

20:                                               ; preds = %16
  %21 = load ptr, ptr %4, align 8
  %22 = load i32, ptr getelementptr inbounds nuw (%struct._psqlSettings, ptr @pset, i32 0, i32 1), align 8
  call void @canonicalize_path_enc(ptr noundef %21, i32 noundef %22)
  %23 = load i8, ptr %5, align 1, !range !4, !noundef !5
  %24 = trunc i8 %23 to i1
  br i1 %24, label %25, label %48

25:                                               ; preds = %20
  %26 = load ptr, ptr getelementptr inbounds nuw (%struct._psqlSettings, ptr @pset, i32 0, i32 24), align 8
  %27 = icmp ne ptr %26, null
  br i1 %27, label %28, label %48

28:                                               ; preds = %25
  %29 = load ptr, ptr %4, align 8
  %30 = getelementptr inbounds i8, ptr %29, i64 0
  %31 = load i8, ptr %30, align 1
  %32 = sext i8 %31 to i32
  %33 = icmp eq i32 %32, 47
  br i1 %33, label %48, label %34

34:                                               ; preds = %28
  %35 = load ptr, ptr %4, align 8
  %36 = call zeroext i1 @has_drive_prefix(ptr noundef %35)
  br i1 %36, label %48, label %37

37:                                               ; preds = %34
  %38 = getelementptr inbounds [1024 x i8], ptr %9, i64 0, i64 0
  %39 = load ptr, ptr getelementptr inbounds nuw (%struct._psqlSettings, ptr @pset, i32 0, i32 24), align 8
  %40 = call i64 @strlcpy(ptr noundef %38, ptr noundef %39, i64 noundef 1024)
  %41 = getelementptr inbounds [1024 x i8], ptr %9, i64 0, i64 0
  call void @get_parent_directory(ptr noundef %41)
  %42 = getelementptr inbounds [1024 x i8], ptr %9, i64 0, i64 0
  %43 = getelementptr inbounds [1024 x i8], ptr %9, i64 0, i64 0
  %44 = load ptr, ptr %4, align 8
  call void @join_path_components(ptr noundef %42, ptr noundef %43, ptr noundef %44)
  %45 = getelementptr inbounds [1024 x i8], ptr %9, i64 0, i64 0
  %46 = load i32, ptr getelementptr inbounds nuw (%struct._psqlSettings, ptr @pset, i32 0, i32 1), align 8
  call void @canonicalize_path_enc(ptr noundef %45, i32 noundef %46)
  %47 = getelementptr inbounds [1024 x i8], ptr %9, i64 0, i64 0
  store ptr %47, ptr %4, align 8
  br label %48

48:                                               ; preds = %37, %34, %28, %25, %20
  %49 = load ptr, ptr %4, align 8
  %50 = call noalias ptr @fopen(ptr noundef %49, ptr noundef @.str.18)
  store ptr %50, ptr %6, align 8
  %51 = load ptr, ptr %6, align 8
  %52 = icmp ne ptr %51, null
  br i1 %52, label %55, label %53

53:                                               ; preds = %48
  %54 = load ptr, ptr %4, align 8
  call void (i32, i32, ptr, ...) @pg_log_generic(i32 noundef 4, i32 noundef 0, ptr noundef @.str.19, ptr noundef %54)
  store i32 1, ptr %3, align 4
  store i32 1, ptr %10, align 4
  br label %79

55:                                               ; preds = %48
  br label %58

56:                                               ; preds = %16
  %57 = load ptr, ptr @stdin, align 8
  store ptr %57, ptr %6, align 8
  store ptr @.str.20, ptr %4, align 8
  br label %58

58:                                               ; preds = %56, %55
  br label %59

59:                                               ; preds = %58, %14
  %60 = load ptr, ptr getelementptr inbounds nuw (%struct._psqlSettings, ptr @pset, i32 0, i32 24), align 8
  store ptr %60, ptr %8, align 8
  %61 = load ptr, ptr %4, align 8
  store ptr %61, ptr getelementptr inbounds nuw (%struct._psqlSettings, ptr @pset, i32 0, i32 24), align 8
  %62 = load ptr, ptr getelementptr inbounds nuw (%struct._psqlSettings, ptr @pset, i32 0, i32 24), align 8
  %63 = icmp ne ptr %62, null
  %64 = select i1 %63, i32 0, i32 1
  call void @pg_logging_config(i32 noundef %64)
  %65 = load ptr, ptr %6, align 8
  %66 = call i32 @MainLoop(ptr noundef %65)
  store i32 %66, ptr %7, align 4
  %67 = load ptr, ptr %6, align 8
  %68 = load ptr, ptr @stdin, align 8
  %69 = icmp ne ptr %67, %68
  br i1 %69, label %70, label %73

70:                                               ; preds = %59
  %71 = load ptr, ptr %6, align 8
  %72 = call i32 @fclose(ptr noundef %71)
  br label %73

73:                                               ; preds = %70, %59
  %74 = load ptr, ptr %8, align 8
  store ptr %74, ptr getelementptr inbounds nuw (%struct._psqlSettings, ptr @pset, i32 0, i32 24), align 8
  %75 = load ptr, ptr getelementptr inbounds nuw (%struct._psqlSettings, ptr @pset, i32 0, i32 24), align 8
  %76 = icmp ne ptr %75, null
  %77 = select i1 %76, i32 0, i32 1
  call void @pg_logging_config(i32 noundef %77)
  %78 = load i32, ptr %7, align 4
  store i32 %78, ptr %3, align 4
  store i32 1, ptr %10, align 4
  br label %79

79:                                               ; preds = %73, %53
  call void @llvm.lifetime.end.p0(i64 1024, ptr %9) #10
  call void @llvm.lifetime.end.p0(i64 8, ptr %8) #10
  call void @llvm.lifetime.end.p0(i64 4, ptr %7) #10
  call void @llvm.lifetime.end.p0(i64 8, ptr %6) #10
  %80 = load i32, ptr %3, align 4
  ret i32 %80
}