; Function Attrs: nounwind uwtable
define dso_local i32 @process_file(ptr noundef %0, i1 noundef zeroext %1) local_unnamed_addr #0 {
  %3 = alloca [1024 x i8], align 16
  call void @llvm.lifetime.start.p0(i64 1024, ptr nonnull %3) #16
  %.not = icmp eq ptr %0, null
  br i1 %.not, label %4, label %sub_0

4:                                                ; preds = %2
  %5 = load ptr, ptr @stdin, align 8
  br label %27

sub_0:                                            ; preds = %2
  %6 = load i8, ptr %0, align 1
  %.not26 = icmp eq i8 %6, 45
  br i1 %.not26, label %.tail, label %.tail.thread

.tail:                                            ; preds = %sub_0
  %7 = getelementptr inbounds nuw i8, ptr %0, i64 1
  %8 = load i8, ptr %7, align 1
  %9 = icmp eq i8 %8, 0
  br i1 %9, label %25, label %.tail.thread

.tail.thread:                                     ; preds = %sub_0, %.tail
  %10 = load i32, ptr getelementptr inbounds nuw (i8, ptr @pset, i64 8), align 8
  tail call void @canonicalize_path_enc(ptr noundef nonnull %0, i32 noundef %10) #16
  %11 = load ptr, ptr getelementptr inbounds nuw (i8, ptr @pset, i64 344), align 8
  %12 = icmp ne ptr %11, null
  %or.cond = select i1 %1, i1 %12, i1 false
  br i1 %or.cond, label %13, label %22

13:                                               ; preds = %.tail.thread
  %14 = load i8, ptr %0, align 1
  %15 = icmp eq i8 %14, 47
  br i1 %15, label %22, label %16

16:                                               ; preds = %13
  %17 = tail call zeroext i1 @has_drive_prefix(ptr noundef nonnull %0) #16
  br i1 %17, label %22, label %18

18:                                               ; preds = %16
  %19 = load ptr, ptr getelementptr inbounds nuw (i8, ptr @pset, i64 344), align 8
  %20 = call i64 @strlcpy(ptr noundef nonnull dereferenceable(1) %3, ptr noundef nonnull dereferenceable(1) %19, i64 noundef 1024) #16
  call void @get_parent_directory(ptr noundef nonnull %3) #16
  call void @join_path_components(ptr noundef nonnull %3, ptr noundef nonnull %3, ptr noundef nonnull %0) #16
  %21 = load i32, ptr getelementptr inbounds nuw (i8, ptr @pset, i64 8), align 8
  call void @canonicalize_path_enc(ptr noundef nonnull %3, i32 noundef %21) #16
  br label %22

22:                                               ; preds = %18, %16, %13, %.tail.thread
  %.1 = phi ptr [ %0, %13 ], [ %0, %16 ], [ %3, %18 ], [ %0, %.tail.thread ]
  %23 = call noalias ptr @fopen(ptr noundef nonnull %.1, ptr noundef nonnull @.str.18)
  %.not22 = icmp eq ptr %23, null
  br i1 %.not22, label %24, label %27

24:                                               ; preds = %22
  call void (i32, i32, ptr, ...) @pg_log_generic(i32 noundef 4, i32 noundef 0, ptr noundef nonnull @.str.19, ptr noundef nonnull %.1) #16
  br label %36

25:                                               ; preds = %.tail
  %26 = load ptr, ptr @stdin, align 8
  br label %27

27:                                               ; preds = %25, %22, %4
  %.018 = phi ptr [ %23, %22 ], [ %26, %25 ], [ %5, %4 ]
  %.017 = phi ptr [ %.1, %22 ], [ @.str.20, %25 ], [ null, %4 ]
  %28 = load ptr, ptr getelementptr inbounds nuw (i8, ptr @pset, i64 344), align 8
  store ptr %.017, ptr getelementptr inbounds nuw (i8, ptr @pset, i64 344), align 8
  %.not23 = icmp eq ptr %.017, null
  %29 = zext i1 %.not23 to i32
  call void @pg_logging_config(i32 noundef %29) #16
  %30 = call i32 @MainLoop(ptr noundef %.018) #16
  %31 = load ptr, ptr @stdin, align 8
  %.not24 = icmp eq ptr %.018, %31
  br i1 %.not24, label %34, label %32

32:                                               ; preds = %27
  %33 = call i32 @fclose(ptr noundef %.018)
  br label %34

34:                                               ; preds = %32, %27
  store ptr %28, ptr getelementptr inbounds nuw (i8, ptr @pset, i64 344), align 8
  %.not25 = icmp eq ptr %28, null
  %35 = zext i1 %.not25 to i32
  call void @pg_logging_config(i32 noundef %35) #16
  br label %36

36:                                               ; preds = %34, %24
  %.0 = phi i32 [ %30, %34 ], [ 1, %24 ]
  call void @llvm.lifetime.end.p0(i64 1024, ptr nonnull %3) #16
  ret i32 %.0
}